target datalayout = "e-m:e-p270:32:32-p271:32:32-p272:64:64-i64:64-i128:128-f80:128-n8:16:32:64-S128"
target triple = "x86_64-pc-linux-gnu"

%"class.google::protobuf::internal::LogMessage" = type { i32, ptr, i32, %"class.std::__cxx11::basic_string" }
%"class.std::__cxx11::basic_string" = type { %"struct.std::__cxx11::basic_string<char>::_Alloc_hider", i64, %union.anon.0 }
%"struct.std::__cxx11::basic_string<char>::_Alloc_hider" = type { ptr }
%union.anon.0 = type { i64, [8 x i8] }
%"class.google::protobuf::internal::LogFinisher" = type { i8 }
%"struct.google::protobuf::internal::ExtensionInfo" = type { i8, i8, i8, %union.anon, ptr }
%union.anon = type { %"struct.google::protobuf::internal::ExtensionInfo::EnumValidityCheck" }
%"struct.google::protobuf::internal::ExtensionInfo::EnumValidityCheck" = type { ptr, ptr }
%"struct.google::protobuf::internal::ExtensionInfo::MessageInfo" = type { ptr }

@.str = private unnamed_addr constant [43 x i8] c"third_party/protobuf-lite/extension_set.cc\00", align 1
@.str.5 = private unnamed_addr constant [91 x i8] c"CHECK failed: type == WireFormatLite::TYPE_MESSAGE || type == WireFormatLite::TYPE_GROUP: \00", align 1

; Function Attrs: mustprogress nounwind uwtable
define linkonce_odr void @_ZN6google8protobuf8internal13ExtensionInfoC2Ehbb(ptr noundef nonnull align 8 dereferenceable(32) %0, i8 noundef zeroext %1, i1 noundef zeroext %2, i1 noundef zeroext %3) unnamed_addr #4 comdat align 2 {
  %5 = alloca ptr, align 8
  %6 = alloca i8, align 1
  %7 = alloca i8, align 1
  %8 = alloca i8, align 1
  store ptr %0, ptr %5, align 8
  store i8 %1, ptr %6, align 1
  %9 = zext i1 %2 to i8
  store i8 %9, ptr %7, align 1
  %10 = zext i1 %3 to i8
  store i8 %10, ptr %8, align 1
  %11 = load ptr, ptr %5, align 8
  %12 = getelementptr inbounds %"struct.google::protobuf::internal::ExtensionInfo", ptr %11, i32 0, i32 0
  %13 = load i8, ptr %6, align 1
  store i8 %13, ptr %12, align 8
  %14 = getelementptr inbounds %"struct.google::protobuf::internal::ExtensionInfo", ptr %11, i32 0, i32 1
  %15 = load i8, ptr %7, align 1
  %16 = trunc i8 %15 to i1
  %17 = zext i1 %16 to i8
  store i8 %17, ptr %14, align 1
  %18 = getelementptr inbounds %"struct.google::protobuf::internal::ExtensionInfo", ptr %11, i32 0, i32 2
  %19 = load i8, ptr %8, align 1
  %20 = trunc i8 %19 to i1
  %21 = zext i1 %20 to i8
  store i8 %21, ptr %18, align 2
  %22 = getelementptr inbounds %"struct.google::protobuf::internal::ExtensionInfo", ptr %11, i32 0, i32 4
  store ptr null, ptr %22, align 8
  ret void
}

; Function Attrs: mustprogress uwtable
define void @_ZN6google8protobuf8internal12ExtensionSet24RegisterMessageExtensionEPKNS0_11MessageLiteEihbbS5_(ptr noundef %0, i32 noundef %1, i8 noundef zeroext %2, i1 noundef zeroext %3, i1 noundef zeroext %4, ptr noundef %5) #6 align 2 personality ptr @__gxx_personality_v0 {
  %7 = alloca ptr, align 8
  %8 = alloca i32, align 4
  %9 = alloca i8, align 1
  %10 = alloca i8, align 1
  %11 = alloca i8, align 1
  %12 = alloca ptr, align 8
  %13 = alloca %"class.google::protobuf::internal::LogMessage", align 8
  %14 = alloca i1, align 1
  %15 = alloca ptr, align 8
  %16 = alloca i32, align 4
  %17 = alloca %"class.google::protobuf::internal::LogFinisher", align 1
  %18 = alloca %"struct.google::protobuf::internal::ExtensionInfo", align 8
  %19 = alloca %"struct.google::protobuf::internal::ExtensionInfo::MessageInfo", align 8
  %20 = alloca %"struct.google::protobuf::internal::ExtensionInfo", align 8
  store ptr %0, ptr %7, align 8
  store i32 %1, ptr %8, align 4
  store i8 %2, ptr %9, align 1
  %21 = zext i1 %3 to i8
  store i8 %21, ptr %10, align 1
  %22 = zext i1 %4 to i8
  store i8 %22, ptr %11, align 1
  store ptr %5, ptr %12, align 8
  %23 = load i8, ptr %9, align 1
  %24 = zext i8 %23 to i32
  %25 = icmp eq i32 %24, 11
  store i1 false, ptr %14, align 1
  br i1 %25, label %30, label %26

26:                                               ; preds = %6
  %27 = load i8, ptr %9, align 1
  %28 = zext i8 %27 to i32
  %29 = icmp eq i32 %28, 10
  br i1 %29, label %30, label %31

30:                                               ; preds = %26, %6
  br label %35

31:                                               ; preds = %26
  call void @_ZN6google8protobuf8internal10LogMessageC1ENS0_8LogLevelEPKci(ptr noundef nonnull align 8 dereferenceable(56) %13, i32 noundef 3, ptr noundef @.str, i32 noundef 177)
  store i1 true, ptr %14, align 1
  %32 = invoke noundef nonnull align 8 dereferenceable(56) ptr @_ZN6google8protobuf8internal10LogMessagelsEPKc(ptr noundef nonnull align 8 dereferenceable(56) %13, ptr noundef @.str.5)
          to label %33 unwind label %49

33:                                               ; preds = %31
  invoke void @_ZN6google8protobuf8internal11LogFinisheraSERNS1_10LogMessageE(ptr noundef nonnull align 1 dereferenceable(1) %17, ptr noundef nonnull align 8 dereferenceable(56) %32)
          to label %34 unwind label %49

34:                                               ; preds = %33
  br label %35

35:                                               ; preds = %34, %30
  %36 = load i1, ptr %14, align 1
  br i1 %36, label %37, label %38

37:                                               ; preds = %35
  call void @_ZN6google8protobuf8internal10LogMessageD1Ev(ptr noundef nonnull align 8 dereferenceable(56) %13) #3
  br label %38

38:                                               ; preds = %37, %35
  %39 = load i8, ptr %9, align 1
  %40 = load i8, ptr %10, align 1
  %41 = trunc i8 %40 to i1
  %42 = load i8, ptr %11, align 1
  %43 = trunc i8 %42 to i1
  call void @_ZN6google8protobuf8internal13ExtensionInfoC2Ehbb(ptr noundef nonnull align 8 dereferenceable(32) %18, i8 noundef zeroext %39, i1 noundef zeroext %41, i1 noundef zeroext %43)
  %44 = getelementptr inbounds %"struct.google::protobuf::internal::ExtensionInfo::MessageInfo", ptr %19, i32 0, i32 0
  %45 = load ptr, ptr %12, align 8
  store ptr %45, ptr %44, align 8
  %46 = getelementptr inbounds %"struct.google::protobuf::internal::ExtensionInfo", ptr %18, i32 0, i32 3
  call void @llvm.memcpy.p0.p0.i64(ptr align 8 %46, ptr align 8 %19, i64 8, i1 false)
  %47 = load ptr, ptr %7, align 8
  %48 = load i32, ptr %8, align 4
  call void @llvm.memcpy.p0.p0.i64(ptr align 8 %20, ptr align 8 %18, i64 32, i1 false)
  call void @_ZN6google8protobuf8internal12_GLOBAL__N_18RegisterEPKNS0_11MessageLiteEiNS1_13ExtensionInfoE(ptr noundef %47, i32 noundef %48, ptr noundef byval(%"struct.google::protobuf::internal::ExtensionInfo") align 8 %20)
  ret void

49:                                               ; preds = %33, %31
  %50 = landingpad { ptr, i32 }
          cleanup
  %51 = extractvalue { ptr, i32 } %50, 0
  store ptr %51, ptr %15, align 8
  %52 = extractvalue { ptr, i32 } %50, 1
  store i32 %52, ptr %16, align 4
  %53 = load i1, ptr %14, align 1
  br i1 %53, label %54, label %55

54:                                               ; preds = %49
  call void @_ZN6google8protobuf8internal10LogMessageD1Ev(ptr noundef nonnull align 8 dereferenceable(56) %13) #3
  br label %55

55:                                               ; preds = %54, %49
  br label %56

56:                                               ; preds = %55
  %57 = load ptr, ptr %15, align 8
  %58 = load i32, ptr %16, align 4
  %59 = insertvalue { ptr, i32 } poison, ptr %57, 0
  %60 = insertvalue { ptr, i32 } %59, i32 %58, 1
  resume { ptr, i32 } %60
}