; Function Attrs: mustprogress uwtable
define void @_ZN6google8protobuf8internal12ExtensionSet24RegisterMessageExtensionEPKNS0_11MessageLiteEihbbS5_(ptr noundef %0, i32 noundef %1, i8 noundef zeroext %2, i1 noundef zeroext %3, i1 noundef zeroext %4, ptr noundef %5) local_unnamed_addr #8 align 2 personality ptr @__gxx_personality_v0 {
  %7 = alloca %"class.google::protobuf::internal::LogMessage", align 8
  %8 = alloca %"class.google::protobuf::internal::LogFinisher", align 1
  %9 = alloca %"struct.google::protobuf::internal::ExtensionInfo", align 8
  %10 = and i8 %2, -2
  %or.cond.not = icmp eq i8 %10, 10
  br i1 %or.cond.not, label %.critedge, label %11

11:                                               ; preds = %6
  call void @_ZN6google8protobuf8internal10LogMessageC1ENS0_8LogLevelEPKci(ptr noundef nonnull align 8 dereferenceable(56) %7, i32 noundef 3, ptr noundef nonnull @.str, i32 noundef 177)
  %12 = invoke noundef nonnull align 8 dereferenceable(56) ptr @_ZN6google8protobuf8internal10LogMessagelsEPKc(ptr noundef nonnull align 8 dereferenceable(56) %7, ptr noundef nonnull @.str.5)
          to label %13 unwind label %17

13:                                               ; preds = %11
  invoke void @_ZN6google8protobuf8internal11LogFinisheraSERNS1_10LogMessageE(ptr noundef nonnull align 1 dereferenceable(1) %8, ptr noundef nonnull align 8 dereferenceable(56) %12)
          to label %14 unwind label %17

14:                                               ; preds = %13
  call void @_ZN6google8protobuf8internal10LogMessageD1Ev(ptr noundef nonnull align 8 dereferenceable(56) %7) #23
  br label %.critedge

.critedge:                                        ; preds = %6, %14
  %15 = zext i1 %3 to i8
  %16 = zext i1 %4 to i8
  store i8 %2, ptr %9, align 8
  %.sroa.2.0..sroa_idx = getelementptr inbounds i8, ptr %9, i64 1
  store i8 %15, ptr %.sroa.2.0..sroa_idx, align 1
  %.sroa.3.0..sroa_idx = getelementptr inbounds i8, ptr %9, i64 2
  store i8 %16, ptr %.sroa.3.0..sroa_idx, align 2
  %.sroa.413.0..sroa_idx = getelementptr inbounds i8, ptr %9, i64 8
  store ptr %5, ptr %.sroa.413.0..sroa_idx, align 8
  %.sroa.514.0..sroa_idx = getelementptr inbounds i8, ptr %9, i64 24
  store ptr null, ptr %.sroa.514.0..sroa_idx, align 8
  call fastcc void @_ZN6google8protobuf8internal12_GLOBAL__N_18RegisterEPKNS0_11MessageLiteEiNS1_13ExtensionInfoE(ptr noundef %0, i32 noundef %1, ptr noundef nonnull byval(%"struct.google::protobuf::internal::ExtensionInfo") align 8 %9)
  ret void

17:                                               ; preds = %13, %11
  %18 = landingpad { ptr, i32 }
          cleanup
  call void @_ZN6google8protobuf8internal10LogMessageD1Ev(ptr noundef nonnull align 8 dereferenceable(56) %7) #23
  resume { ptr, i32 } %18
}